; Function Attrs: mustprogress nounwind uwtable
define hidden void @_ZN4llvh10TimerGroupC2ENS_9StringRefES1_(ptr noundef nonnull align 8 dereferenceable(112) %this, ptr %Name.coerce0, i64 %Name.coerce1, ptr %Description.coerce0, i64 %Description.coerce1) unnamed_addr #0 align 2 {
entry:
  %ref.tmp = alloca %"class.std::allocator", align 1
  %ref.tmp7 = alloca %"class.std::allocator", align 1
  %add.ptr.i = getelementptr inbounds i8, ptr %Name.coerce0, i64 %Name.coerce1
  call void @_ZNSaIcEC1Ev(ptr noundef nonnull align 1 dereferenceable(1) %ref.tmp) #21
  %call.i = call noundef ptr @_ZNSt7__cxx1112basic_stringIcSt11char_traitsIcESaIcEE13_M_local_dataEv(ptr noundef nonnull align 8 dereferenceable(32) %this) #21
  call void @_ZNSt7__cxx1112basic_stringIcSt11char_traitsIcESaIcEE12_Alloc_hiderC1EPcRKS3_(ptr noundef nonnull align 8 dereferenceable(8) %this, ptr noundef %call.i, ptr noundef nonnull align 1 dereferenceable(1) %ref.tmp) #21
  %_M_string_length.i = getelementptr inbounds i8, ptr %this, i64 8
  store i64 0, ptr %_M_string_length.i, align 8
  call void @_ZNSt7__cxx1112basic_stringIcSt11char_traitsIcESaIcEE12_M_constructIPKcEEvT_S8_St20forward_iterator_tag(ptr noundef nonnull align 8 dereferenceable(32) %this, ptr noundef %Name.coerce0, ptr noundef %add.ptr.i)
  call void @_ZNSaIcED1Ev(ptr noundef nonnull align 1 dereferenceable(1) %ref.tmp) #21
  %Description4 = getelementptr inbounds i8, ptr %this, i64 32
  %add.ptr.i2 = getelementptr inbounds i8, ptr %Description.coerce0, i64 %Description.coerce1
  call void @_ZNSaIcEC1Ev(ptr noundef nonnull align 1 dereferenceable(1) %ref.tmp7) #21
  %call.i3 = call noundef ptr @_ZNSt7__cxx1112basic_stringIcSt11char_traitsIcESaIcEE13_M_local_dataEv(ptr noundef nonnull align 8 dereferenceable(32) %Description4) #21
  call void @_ZNSt7__cxx1112basic_stringIcSt11char_traitsIcESaIcEE12_Alloc_hiderC1EPcRKS3_(ptr noundef nonnull align 8 dereferenceable(8) %Description4, ptr noundef %call.i3, ptr noundef nonnull align 1 dereferenceable(1) %ref.tmp7) #21
  %_M_string_length.i4 = getelementptr inbounds i8, ptr %this, i64 40
  store i64 0, ptr %_M_string_length.i4, align 8
  call void @_ZNSt7__cxx1112basic_stringIcSt11char_traitsIcESaIcEE12_M_constructIPKcEEvT_S8_St20forward_iterator_tag(ptr noundef nonnull align 8 dereferenceable(32) %Description4, ptr noundef %Description.coerce0, ptr noundef %add.ptr.i2)
  call void @_ZNSaIcED1Ev(ptr noundef nonnull align 1 dereferenceable(1) %ref.tmp7) #21
  %FirstTimer = getelementptr inbounds i8, ptr %this, i64 64
  call void @llvm.memset.p0.i64(ptr noundef nonnull align 8 dereferenceable(32) %FirstTimer, i8 0, i64 32, i1 false)
  %0 = load atomic i64, ptr @_ZL9TimerLock acquire, align 8
  %tobool.not.i = icmp eq i64 %0, 0
  br i1 %tobool.not.i, label %if.then.i, label %_ZN4llvh13ManagedStaticINS_3sys10SmartMutexILb1EEENS_14object_creatorIS3_EENS_14object_deleterIS3_EEEdeEv.exit

if.then.i:                                        ; preds = %entry
  call void @_ZNK4llvh17ManagedStaticBase21RegisterManagedStaticEPFPvvEPFvS1_E(ptr noundef nonnull align 8 dereferenceable(24) @_ZL9TimerLock, ptr noundef nonnull @_ZN4llvh14object_creatorINS_3sys10SmartMutexILb1EEEE4callEv, ptr noundef nonnull @_ZN4llvh14object_deleterINS_3sys10SmartMutexILb1EEEE4callEPv) #21
  br label %_ZN4llvh13ManagedStaticINS_3sys10SmartMutexILb1EEENS_14object_creatorIS3_EENS_14object_deleterIS3_EEEdeEv.exit

_ZN4llvh13ManagedStaticINS_3sys10SmartMutexILb1EEENS_14object_creatorIS3_EENS_14object_deleterIS3_EEEdeEv.exit: ; preds = %entry, %if.then.i
  %1 = load atomic i64, ptr @_ZL9TimerLock monotonic, align 8
  %atomic-temp.i.0.i1.i = inttoptr i64 %1 to ptr
  %call.i.i = call noundef zeroext i1 @_ZN4llvh21llvm_is_multithreadedEv() #21
  br i1 %call.i.i, label %if.then.i.i, label %if.else.i.i

if.then.i.i:                                      ; preds = %_ZN4llvh13ManagedStaticINS_3sys10SmartMutexILb1EEENS_14object_creatorIS3_EENS_14object_deleterIS3_EEEdeEv.exit
  %call2.i.i = call noundef zeroext i1 @_ZN4llvh3sys9MutexImpl7acquireEv(ptr noundef nonnull align 8 dereferenceable(8) %atomic-temp.i.0.i1.i) #21
  br label %_ZN4llvh3sys15SmartScopedLockILb1EEC2ERNS0_10SmartMutexILb1EEE.exit

if.else.i.i:                                      ; preds = %_ZN4llvh13ManagedStaticINS_3sys10SmartMutexILb1EEENS_14object_creatorIS3_EENS_14object_deleterIS3_EEEdeEv.exit
  %acquired.i.i = getelementptr inbounds i8, ptr %atomic-temp.i.0.i1.i, i64 8
  %2 = load i32, ptr %acquired.i.i, align 8
  %inc.i.i = add i32 %2, 1
  store i32 %inc.i.i, ptr %acquired.i.i, align 8
  br label %_ZN4llvh3sys15SmartScopedLockILb1EEC2ERNS0_10SmartMutexILb1EEE.exit

_ZN4llvh3sys15SmartScopedLockILb1EEC2ERNS0_10SmartMutexILb1EEE.exit: ; preds = %if.then.i.i, %if.else.i.i
  %3 = load ptr, ptr @_ZL14TimerGroupList, align 8
  %tobool.not = icmp eq ptr %3, null
  br i1 %tobool.not, label %if.end, label %if.then

if.then:                                          ; preds = %_ZN4llvh3sys15SmartScopedLockILb1EEC2ERNS0_10SmartMutexILb1EEE.exit
  %Next = getelementptr inbounds i8, ptr %this, i64 104
  %Prev = getelementptr inbounds i8, ptr %3, i64 96
  store ptr %Next, ptr %Prev, align 8
  br label %if.end

if.end:                                           ; preds = %if.then, %_ZN4llvh3sys15SmartScopedLockILb1EEC2ERNS0_10SmartMutexILb1EEE.exit
  %Next9 = getelementptr inbounds i8, ptr %this, i64 104
  store ptr %3, ptr %Next9, align 8
  %Prev10 = getelementptr inbounds i8, ptr %this, i64 96
  store ptr @_ZL14TimerGroupList, ptr %Prev10, align 8
  store ptr %this, ptr @_ZL14TimerGroupList, align 8
  %call.i.i5 = call noundef zeroext i1 @_ZN4llvh21llvm_is_multithreadedEv() #21
  br i1 %call.i.i5, label %if.then.i.i8, label %if.else.i.i6

if.then.i.i8:                                     ; preds = %if.end
  %call2.i.i9 = call noundef zeroext i1 @_ZN4llvh3sys9MutexImpl7releaseEv(ptr noundef nonnull align 8 dereferenceable(8) %atomic-temp.i.0.i1.i) #21
  br label %_ZN4llvh3sys15SmartScopedLockILb1EED2Ev.exit

if.else.i.i6:                                     ; preds = %if.end
  %acquired.i.i7 = getelementptr inbounds i8, ptr %atomic-temp.i.0.i1.i, i64 8
  %4 = load i32, ptr %acquired.i.i7, align 8
  %dec.i.i = add i32 %4, -1
  store i32 %dec.i.i, ptr %acquired.i.i7, align 8
  br label %_ZN4llvh3sys15SmartScopedLockILb1EED2Ev.exit

_ZN4llvh3sys15SmartScopedLockILb1EED2Ev.exit:     ; preds = %if.then.i.i8, %if.else.i.i6
  ret void
}